target datalayout = "e-m:e-p270:32:32-p271:32:32-p272:64:64-i64:64-i128:128-f80:128-n8:16:32:64-S128"
target triple = "x86_64-pc-linux-gnu"

%struct.Abc_Ntk_t_ = type { i32, i32, ptr, ptr, ptr, ptr, ptr, ptr, ptr, ptr, ptr, ptr, ptr, [11 x i32], i32, i32, i32, i32, ptr, i32, ptr, ptr, i32, i32, i32, double, i32, %struct.Vec_Int_t_, ptr, ptr, ptr, ptr, ptr, float, i32, ptr, ptr, ptr, ptr, ptr, ptr, ptr, ptr, ptr, ptr, ptr, ptr, ptr, ptr, ptr, ptr, ptr, ptr, ptr, ptr, ptr, ptr }
%struct.Vec_Int_t_ = type { i32, i32, ptr }
%struct.Vec_Ptr_t_ = type { i32, i32, ptr }
%struct.Abc_Obj_t_ = type { ptr, ptr, i32, i32, %struct.Vec_Int_t_, %struct.Vec_Int_t_, %union.anon, %union.anon.0 }
%union.anon = type { ptr }
%union.anon.0 = type { ptr }
%struct.Vec_Str_t_ = type { i32, i32, ptr }

@stdout = external global ptr, align 8
@.str.21 = private unnamed_addr constant [52 x i8] c"Abc_NtkCreateFromNode(): Network check has failed.\0A\00", align 1
@.str.22 = private unnamed_addr constant [6 x i8] c"range\00", align 1

; Function Attrs: inlinehint nounwind uwtable
define internal ptr @Vec_PtrEntry(ptr noundef %0, i32 noundef %1) #4 {
  %3 = alloca ptr, align 8
  %4 = alloca i32, align 4
  store ptr %0, ptr %3, align 8, !tbaa !42
  store i32 %1, ptr %4, align 4, !tbaa !3
  %5 = load ptr, ptr %3, align 8, !tbaa !42
  %6 = getelementptr inbounds nuw %struct.Vec_Ptr_t_, ptr %5, i32 0, i32 2
  %7 = load ptr, ptr %6, align 8, !tbaa !46
  %8 = load i32, ptr %4, align 4, !tbaa !3
  %9 = sext i32 %8 to i64
  %10 = getelementptr inbounds ptr, ptr %7, i64 %9
  %11 = load ptr, ptr %10, align 8, !tbaa !47
  ret ptr %11
}

; Function Attrs: inlinehint nounwind uwtable
define internal i32 @Vec_PtrSize(ptr noundef %0) #4 {
  %2 = alloca ptr, align 8
  store ptr %0, ptr %2, align 8, !tbaa !42
  %3 = load ptr, ptr %2, align 8, !tbaa !42
  %4 = getelementptr inbounds nuw %struct.Vec_Ptr_t_, ptr %3, i32 0, i32 1
  %5 = load i32, ptr %4, align 4, !tbaa !43
  ret i32 %5
}

; Function Attrs: inlinehint nounwind uwtable
define internal ptr @Abc_NtkCreatePo(ptr noundef %0) #4 {
  %2 = alloca ptr, align 8
  store ptr %0, ptr %2, align 8, !tbaa !7
  %3 = load ptr, ptr %2, align 8, !tbaa !7
  %4 = call ptr @Abc_NtkCreateObj(ptr noundef %3, i32 noundef 3)
  ret ptr %4
}

; Function Attrs: inlinehint nounwind uwtable
define internal ptr @Abc_NtkCi(ptr noundef %0, i32 noundef %1) #4 {
  %3 = alloca ptr, align 8
  %4 = alloca i32, align 4
  store ptr %0, ptr %3, align 8, !tbaa !7
  store i32 %1, ptr %4, align 4, !tbaa !3
  %5 = load ptr, ptr %3, align 8, !tbaa !7
  %6 = getelementptr inbounds nuw %struct.Abc_Ntk_t_, ptr %5, i32 0, i32 8
  %7 = load ptr, ptr %6, align 8, !tbaa !31
  %8 = load i32, ptr %4, align 4, !tbaa !3
  %9 = call ptr @Vec_PtrEntry(ptr noundef %7, i32 noundef %8)
  ret ptr %9
}

; Function Attrs: inlinehint nounwind uwtable
define internal i32 @Abc_NtkCiNum(ptr noundef %0) #4 {
  %2 = alloca ptr, align 8
  store ptr %0, ptr %2, align 8, !tbaa !7
  %3 = load ptr, ptr %2, align 8, !tbaa !7
  %4 = getelementptr inbounds nuw %struct.Abc_Ntk_t_, ptr %3, i32 0, i32 8
  %5 = load ptr, ptr %4, align 8, !tbaa !31
  %6 = call i32 @Vec_PtrSize(ptr noundef %5)
  ret i32 %6
}

; Function Attrs: inlinehint nounwind uwtable
define internal void @Vec_StrFree(ptr noundef %0) #4 {
  %2 = alloca ptr, align 8
  store ptr %0, ptr %2, align 8, !tbaa !177
  %3 = load ptr, ptr %2, align 8, !tbaa !177
  %4 = getelementptr inbounds nuw %struct.Vec_Str_t_, ptr %3, i32 0, i32 2
  %5 = load ptr, ptr %4, align 8, !tbaa !181
  %6 = icmp ne ptr %5, null
  br i1 %6, label %7, label %13

7:                                                ; preds = %1
  %8 = load ptr, ptr %2, align 8, !tbaa !177
  %9 = getelementptr inbounds nuw %struct.Vec_Str_t_, ptr %8, i32 0, i32 2
  %10 = load ptr, ptr %9, align 8, !tbaa !181
  call void @free(ptr noundef %10) #11
  %11 = load ptr, ptr %2, align 8, !tbaa !177
  %12 = getelementptr inbounds nuw %struct.Vec_Str_t_, ptr %11, i32 0, i32 2
  store ptr null, ptr %12, align 8, !tbaa !181
  br label %14

13:                                               ; preds = %1
  br label %14

14:                                               ; preds = %13, %7
  %15 = load ptr, ptr %2, align 8, !tbaa !177
  %16 = icmp ne ptr %15, null
  br i1 %16, label %17, label %19

17:                                               ; preds = %14
  %18 = load ptr, ptr %2, align 8, !tbaa !177
  call void @free(ptr noundef %18) #11
  store ptr null, ptr %2, align 8, !tbaa !177
  br label %20

19:                                               ; preds = %14
  br label %20

20:                                               ; preds = %19, %17
  ret void
}

; Function Attrs: inlinehint nounwind uwtable
define internal ptr @Vec_StrArray(ptr noundef %0) #4 {
  %2 = alloca ptr, align 8
  store ptr %0, ptr %2, align 8, !tbaa !177
  %3 = load ptr, ptr %2, align 8, !tbaa !177
  %4 = getelementptr inbounds nuw %struct.Vec_Str_t_, ptr %3, i32 0, i32 2
  %5 = load ptr, ptr %4, align 8, !tbaa !181
  ret ptr %5
}

; Function Attrs: inlinehint nounwind uwtable
define internal ptr @Abc_NtkCreatePi(ptr noundef %0) #4 {
  %2 = alloca ptr, align 8
  store ptr %0, ptr %2, align 8, !tbaa !7
  %3 = load ptr, ptr %2, align 8, !tbaa !7
  %4 = call ptr @Abc_NtkCreateObj(ptr noundef %3, i32 noundef 2)
  ret ptr %4
}

; Function Attrs: inlinehint nounwind uwtable
define internal ptr @Abc_NtkCo(ptr noundef %0, i32 noundef %1) #4 {
  %3 = alloca ptr, align 8
  %4 = alloca i32, align 4
  store ptr %0, ptr %3, align 8, !tbaa !7
  store i32 %1, ptr %4, align 4, !tbaa !3
  %5 = load ptr, ptr %3, align 8, !tbaa !7
  %6 = getelementptr inbounds nuw %struct.Abc_Ntk_t_, ptr %5, i32 0, i32 9
  %7 = load ptr, ptr %6, align 8, !tbaa !32
  %8 = load i32, ptr %4, align 4, !tbaa !3
  %9 = call ptr @Vec_PtrEntry(ptr noundef %7, i32 noundef %8)
  ret ptr %9
}

; Function Attrs: inlinehint nounwind uwtable
define internal i32 @Abc_NtkCoNum(ptr noundef %0) #4 {
  %2 = alloca ptr, align 8
  store ptr %0, ptr %2, align 8, !tbaa !7
  %3 = load ptr, ptr %2, align 8, !tbaa !7
  %4 = getelementptr inbounds nuw %struct.Abc_Ntk_t_, ptr %3, i32 0, i32 9
  %5 = load ptr, ptr %4, align 8, !tbaa !32
  %6 = call i32 @Vec_PtrSize(ptr noundef %5)
  ret i32 %6
}

; Function Attrs: nounwind uwtable
define ptr @Abc_NtkCreateFromRange(ptr noundef %0) #0 {
  %2 = alloca ptr, align 8
  %3 = alloca ptr, align 8
  %4 = alloca ptr, align 8
  %5 = alloca ptr, align 8
  %6 = alloca ptr, align 8
  %7 = alloca ptr, align 8
  %8 = alloca i32, align 4
  %9 = alloca ptr, align 8
  store ptr %0, ptr %2, align 8, !tbaa !7
  call void @llvm.lifetime.start.p0(i64 8, ptr %3) #11
  call void @llvm.lifetime.start.p0(i64 8, ptr %4) #11
  call void @llvm.lifetime.start.p0(i64 8, ptr %5) #11
  call void @llvm.lifetime.start.p0(i64 8, ptr %6) #11
  call void @llvm.lifetime.start.p0(i64 8, ptr %7) #11
  %10 = load ptr, ptr %2, align 8, !tbaa !7
  %11 = call ptr @Abc_NtkClpGia(ptr noundef %10)
  store ptr %11, ptr %7, align 8, !tbaa !175
  call void @llvm.lifetime.start.p0(i64 4, ptr %8) #11
  call void @llvm.lifetime.start.p0(i64 8, ptr %9) #11
  %12 = load ptr, ptr %7, align 8, !tbaa !175
  %13 = call ptr @Gia_ManComputeRange(ptr noundef %12)
  store ptr %13, ptr %9, align 8, !tbaa !177
  %14 = load ptr, ptr %7, align 8, !tbaa !175
  call void @Gia_ManStop(ptr noundef %14)
  %15 = call ptr @Abc_NtkAlloc(i32 noundef 2, i32 noundef 1, i32 noundef 1)
  store ptr %15, ptr %3, align 8, !tbaa !7
  %16 = call ptr @Extra_UtilStrsav(ptr noundef @.str.22)
  %17 = load ptr, ptr %3, align 8, !tbaa !7
  %18 = getelementptr inbounds nuw %struct.Abc_Ntk_t_, ptr %17, i32 0, i32 2
  store ptr %16, ptr %18, align 8, !tbaa !50
  store i32 0, ptr %8, align 4, !tbaa !3
  br label %19

19:                                               ; preds = %36, %1
  %20 = load i32, ptr %8, align 4, !tbaa !3
  %21 = load ptr, ptr %2, align 8, !tbaa !7
  %22 = call i32 @Abc_NtkCoNum(ptr noundef %21)
  %23 = icmp slt i32 %20, %22
  br i1 %23, label %24, label %28

24:                                               ; preds = %19
  %25 = load ptr, ptr %2, align 8, !tbaa !7
  %26 = load i32, ptr %8, align 4, !tbaa !3
  %27 = call ptr @Abc_NtkCo(ptr noundef %25, i32 noundef %26)
  store ptr %27, ptr %4, align 8, !tbaa !53
  br label %28

28:                                               ; preds = %24, %19
  %29 = phi i1 [ false, %19 ], [ true, %24 ]
  br i1 %29, label %30, label %39

30:                                               ; preds = %28
  %31 = load ptr, ptr %3, align 8, !tbaa !7
  %32 = call ptr @Abc_NtkCreatePi(ptr noundef %31)
  %33 = load ptr, ptr %4, align 8, !tbaa !53
  %34 = call ptr @Abc_ObjName(ptr noundef %33)
  %35 = call ptr @Abc_ObjAssignName(ptr noundef %32, ptr noundef %34, ptr noundef null)
  br label %36

36:                                               ; preds = %30
  %37 = load i32, ptr %8, align 4, !tbaa !3
  %38 = add nsw i32 %37, 1
  store i32 %38, ptr %8, align 4, !tbaa !3
  br label %19, !llvm.loop !179

39:                                               ; preds = %28
  %40 = load ptr, ptr %3, align 8, !tbaa !7
  %41 = call ptr @Abc_NtkCreateObj(ptr noundef %40, i32 noundef 7)
  store ptr %41, ptr %5, align 8, !tbaa !53
  %42 = load ptr, ptr %3, align 8, !tbaa !7
  %43 = getelementptr inbounds nuw %struct.Abc_Ntk_t_, ptr %42, i32 0, i32 30
  %44 = load ptr, ptr %43, align 8, !tbaa !38
  %45 = load ptr, ptr %9, align 8, !tbaa !177
  %46 = call ptr @Vec_StrArray(ptr noundef %45)
  %47 = call ptr @Abc_SopRegister(ptr noundef %44, ptr noundef %46)
  %48 = load ptr, ptr %5, align 8, !tbaa !53
  %49 = getelementptr inbounds nuw %struct.Abc_Obj_t_, ptr %48, i32 0, i32 6
  store ptr %47, ptr %49, align 8, !tbaa !52
  %50 = load ptr, ptr %9, align 8, !tbaa !177
  call void @Vec_StrFree(ptr noundef %50)
  store i32 0, ptr %8, align 4, !tbaa !3
  br label %51

51:                                               ; preds = %65, %39
  %52 = load i32, ptr %8, align 4, !tbaa !3
  %53 = load ptr, ptr %3, align 8, !tbaa !7
  %54 = call i32 @Abc_NtkCiNum(ptr noundef %53)
  %55 = icmp slt i32 %52, %54
  br i1 %55, label %56, label %60

56:                                               ; preds = %51
  %57 = load ptr, ptr %3, align 8, !tbaa !7
  %58 = load i32, ptr %8, align 4, !tbaa !3
  %59 = call ptr @Abc_NtkCi(ptr noundef %57, i32 noundef %58)
  store ptr %59, ptr %4, align 8, !tbaa !53
  br label %60

60:                                               ; preds = %56, %51
  %61 = phi i1 [ false, %51 ], [ true, %56 ]
  br i1 %61, label %62, label %68

62:                                               ; preds = %60
  %63 = load ptr, ptr %5, align 8, !tbaa !53
  %64 = load ptr, ptr %4, align 8, !tbaa !53
  call void @Abc_ObjAddFanin(ptr noundef %63, ptr noundef %64)
  br label %65

65:                                               ; preds = %62
  %66 = load i32, ptr %8, align 4, !tbaa !3
  %67 = add nsw i32 %66, 1
  store i32 %67, ptr %8, align 4, !tbaa !3
  br label %51, !llvm.loop !180

68:                                               ; preds = %60
  %69 = load ptr, ptr %3, align 8, !tbaa !7
  %70 = call ptr @Abc_NtkCreatePo(ptr noundef %69)
  store ptr %70, ptr %6, align 8, !tbaa !53
  %71 = load ptr, ptr %6, align 8, !tbaa !53
  %72 = load ptr, ptr %5, align 8, !tbaa !53
  call void @Abc_ObjAddFanin(ptr noundef %71, ptr noundef %72)
  %73 = load ptr, ptr %6, align 8, !tbaa !53
  %74 = call ptr @Abc_ObjAssignName(ptr noundef %73, ptr noundef @.str.22, ptr noundef null)
  %75 = load ptr, ptr %3, align 8, !tbaa !7
  %76 = call i32 @Abc_NtkCheck(ptr noundef %75)
  %77 = icmp ne i32 %76, 0
  br i1 %77, label %81, label %78

78:                                               ; preds = %68
  %79 = load ptr, ptr @stdout, align 8, !tbaa !105
  %80 = call i32 (ptr, ptr, ...) @fprintf(ptr noundef %79, ptr noundef @.str.21) #11
  br label %81

81:                                               ; preds = %78, %68
  %82 = load ptr, ptr %3, align 8, !tbaa !7
  call void @llvm.lifetime.end.p0(i64 8, ptr %9) #11
  call void @llvm.lifetime.end.p0(i64 4, ptr %8) #11
  call void @llvm.lifetime.end.p0(i64 8, ptr %7) #11
  call void @llvm.lifetime.end.p0(i64 8, ptr %6) #11
  call void @llvm.lifetime.end.p0(i64 8, ptr %5) #11
  call void @llvm.lifetime.end.p0(i64 8, ptr %4) #11
  call void @llvm.lifetime.end.p0(i64 8, ptr %3) #11
  ret ptr %82
}