; Function Attrs: nounwind uwtable
define noundef ptr @Abc_NtkCreateFromRange(ptr noundef %0) local_unnamed_addr #0 {
  %2 = tail call ptr @Abc_NtkClpGia(ptr noundef %0) #20
  %3 = tail call ptr @Gia_ManComputeRange(ptr noundef %2) #20
  tail call void @Gia_ManStop(ptr noundef %2) #20
  %4 = tail call ptr @Abc_NtkAlloc(i32 noundef 2, i32 noundef 1, i32 noundef 1)
  %5 = tail call ptr @Extra_UtilStrsav(ptr noundef nonnull @.str.22) #20
  %6 = getelementptr inbounds nuw i8, ptr %4, i64 8
  store ptr %5, ptr %6, align 8, !tbaa !47
  %7 = getelementptr i8, ptr %0, i64 64
  %.val3134 = load ptr, ptr %7, align 8, !tbaa !34
  %8 = getelementptr i8, ptr %.val3134, i64 4
  %.val31.val35 = load i32, ptr %8, align 4, !tbaa !25
  %9 = icmp sgt i32 %.val31.val35, 0
  br i1 %9, label %.lr.ph, label %.critedge

.lr.ph:                                           ; preds = %1, %.lr.ph
  %indvars.iv = phi i64 [ %indvars.iv.next, %.lr.ph ], [ 0, %1 ]
  %.val3137 = phi ptr [ %.val31, %.lr.ph ], [ %.val3134, %1 ]
  %10 = getelementptr i8, ptr %.val3137, i64 8
  %.val32.val = load ptr, ptr %10, align 8, !tbaa !28
  %11 = getelementptr inbounds nuw ptr, ptr %.val32.val, i64 %indvars.iv
  %12 = load ptr, ptr %11, align 8, !tbaa !40
  %13 = tail call ptr @Abc_NtkCreateObj(ptr noundef %4, i32 noundef 2) #20
  %14 = tail call ptr @Abc_ObjName(ptr noundef %12) #20
  %15 = tail call ptr @Abc_ObjAssignName(ptr noundef %13, ptr noundef %14, ptr noundef null) #20
  %indvars.iv.next = add nuw nsw i64 %indvars.iv, 1
  %.val31 = load ptr, ptr %7, align 8, !tbaa !34
  %16 = getelementptr i8, ptr %.val31, i64 4
  %.val31.val = load i32, ptr %16, align 4, !tbaa !25
  %17 = sext i32 %.val31.val to i64
  %18 = icmp slt i64 %indvars.iv.next, %17
  br i1 %18, label %.lr.ph, label %.critedge, !llvm.loop !183

.critedge:                                        ; preds = %.lr.ph, %1
  %19 = tail call ptr @Abc_NtkCreateObj(ptr noundef %4, i32 noundef 7) #20
  %20 = getelementptr inbounds nuw i8, ptr %4, i64 256
  %21 = load ptr, ptr %20, align 8, !tbaa !41
  %22 = getelementptr i8, ptr %3, i64 8
  %.val33 = load ptr, ptr %22, align 8, !tbaa !184
  %23 = tail call ptr @Abc_SopRegister(ptr noundef %21, ptr noundef %.val33) #20
  %24 = getelementptr inbounds nuw i8, ptr %19, i64 56
  store ptr %23, ptr %24, align 8, !tbaa !49
  %25 = load ptr, ptr %22, align 8, !tbaa !184
  %.not.i = icmp eq ptr %25, null
  br i1 %.not.i, label %Vec_StrFree.exit, label %26

26:                                               ; preds = %.critedge
  tail call void @free(ptr noundef nonnull %25) #20
  br label %Vec_StrFree.exit

Vec_StrFree.exit:                                 ; preds = %.critedge, %26
  tail call void @free(ptr noundef nonnull %3) #20
  %27 = getelementptr i8, ptr %4, i64 56
  %.val38 = load ptr, ptr %27, align 8, !tbaa !33
  %28 = getelementptr i8, ptr %.val38, i64 4
  %.val.val39 = load i32, ptr %28, align 4, !tbaa !25
  %29 = icmp sgt i32 %.val.val39, 0
  br i1 %29, label %.lr.ph42, label %.critedge2

.lr.ph42:                                         ; preds = %Vec_StrFree.exit, %.lr.ph42
  %indvars.iv44 = phi i64 [ %indvars.iv.next45, %.lr.ph42 ], [ 0, %Vec_StrFree.exit ]
  %.val41 = phi ptr [ %.val, %.lr.ph42 ], [ %.val38, %Vec_StrFree.exit ]
  %30 = getelementptr i8, ptr %.val41, i64 8
  %.val30.val = load ptr, ptr %30, align 8, !tbaa !28
  %31 = getelementptr inbounds nuw ptr, ptr %.val30.val, i64 %indvars.iv44
  %32 = load ptr, ptr %31, align 8, !tbaa !40
  tail call void @Abc_ObjAddFanin(ptr noundef %19, ptr noundef %32) #20
  %indvars.iv.next45 = add nuw nsw i64 %indvars.iv44, 1
  %.val = load ptr, ptr %27, align 8, !tbaa !33
  %33 = getelementptr i8, ptr %.val, i64 4
  %.val.val = load i32, ptr %33, align 4, !tbaa !25
  %34 = sext i32 %.val.val to i64
  %35 = icmp slt i64 %indvars.iv.next45, %34
  br i1 %35, label %.lr.ph42, label %.critedge2, !llvm.loop !186

.critedge2:                                       ; preds = %.lr.ph42, %Vec_StrFree.exit
  %36 = tail call ptr @Abc_NtkCreateObj(ptr noundef nonnull %4, i32 noundef 3) #20
  tail call void @Abc_ObjAddFanin(ptr noundef %36, ptr noundef %19) #20
  %37 = tail call ptr @Abc_ObjAssignName(ptr noundef %36, ptr noundef nonnull @.str.22, ptr noundef null) #20
  %38 = tail call i32 @Abc_NtkCheck(ptr noundef nonnull %4) #20
  %.not = icmp eq i32 %38, 0
  br i1 %.not, label %39, label %42

39:                                               ; preds = %.critedge2
  %40 = load ptr, ptr @stdout, align 8, !tbaa !100
  %41 = tail call i64 @fwrite(ptr nonnull @.str.21, i64 51, i64 1, ptr %40)
  br label %42

42:                                               ; preds = %39, %.critedge2
  ret ptr %4
}